target datalayout = "e-m:e-p270:32:32-p271:32:32-p272:64:64-i64:64-i128:128-f80:128-n8:16:32:64-S128"
target triple = "x86_64-pc-linux-gnu"

%struct.archiver_context = type { ptr, ptr, ptr }
%struct.object_id = type { [32 x i8], i32 }
%struct.directory = type { ptr, %struct.object_id, i32, i32, i32, [0 x i8] }

; Function Attrs: nounwind uwtable
define internal i32 @write_directory(ptr noundef %0) #0 {
  %2 = alloca i32, align 4
  %3 = alloca ptr, align 8
  %4 = alloca ptr, align 8
  %5 = alloca i32, align 4
  %6 = alloca i32, align 4
  store ptr %0, ptr %3, align 8, !tbaa !70
  call void @llvm.lifetime.start.p0(i64 8, ptr %4) #11
  %7 = load ptr, ptr %3, align 8, !tbaa !70
  %8 = getelementptr inbounds nuw %struct.archiver_context, ptr %7, i32 0, i32 2
  %9 = load ptr, ptr %8, align 8, !tbaa !42
  store ptr %9, ptr %4, align 8, !tbaa !43
  call void @llvm.lifetime.start.p0(i64 4, ptr %5) #11
  %10 = load ptr, ptr %4, align 8, !tbaa !43
  %11 = icmp ne ptr %10, null
  br i1 %11, label %13, label %12

12:                                               ; preds = %1
  store i32 0, ptr %2, align 4
  store i32 1, ptr %6, align 4
  br label %60

13:                                               ; preds = %1
  %14 = load ptr, ptr %4, align 8, !tbaa !43
  %15 = getelementptr inbounds nuw %struct.directory, ptr %14, i32 0, i32 0
  %16 = load ptr, ptr %15, align 8, !tbaa !43
  %17 = load ptr, ptr %3, align 8, !tbaa !70
  %18 = getelementptr inbounds nuw %struct.archiver_context, ptr %17, i32 0, i32 2
  store ptr %16, ptr %18, align 8, !tbaa !42
  %19 = load ptr, ptr %4, align 8, !tbaa !43
  %20 = getelementptr inbounds nuw %struct.directory, ptr %19, i32 0, i32 5
  %21 = load ptr, ptr %4, align 8, !tbaa !43
  %22 = getelementptr inbounds nuw %struct.directory, ptr %21, i32 0, i32 3
  %23 = load i32, ptr %22, align 8, !tbaa !9
  %24 = sub nsw i32 %23, 1
  %25 = sext i32 %24 to i64
  %26 = getelementptr inbounds [0 x i8], ptr %20, i64 0, i64 %25
  store i8 0, ptr %26, align 1, !tbaa !31
  %27 = load ptr, ptr %3, align 8, !tbaa !70
  %28 = call i32 @write_directory(ptr noundef %27)
  %29 = icmp ne i32 %28, 0
  br i1 %29, label %53, label %30

30:                                               ; preds = %13
  %31 = load ptr, ptr %4, align 8, !tbaa !43
  %32 = getelementptr inbounds nuw %struct.directory, ptr %31, i32 0, i32 1
  %33 = load ptr, ptr %4, align 8, !tbaa !43
  %34 = getelementptr inbounds nuw %struct.directory, ptr %33, i32 0, i32 5
  %35 = getelementptr inbounds [0 x i8], ptr %34, i64 0, i64 0
  %36 = load ptr, ptr %4, align 8, !tbaa !43
  %37 = getelementptr inbounds nuw %struct.directory, ptr %36, i32 0, i32 2
  %38 = load i32, ptr %37, align 4, !tbaa !9
  %39 = load ptr, ptr %4, align 8, !tbaa !43
  %40 = getelementptr inbounds nuw %struct.directory, ptr %39, i32 0, i32 5
  %41 = getelementptr inbounds [0 x i8], ptr %40, i64 0, i64 0
  %42 = load ptr, ptr %4, align 8, !tbaa !43
  %43 = getelementptr inbounds nuw %struct.directory, ptr %42, i32 0, i32 2
  %44 = load i32, ptr %43, align 4, !tbaa !9
  %45 = sext i32 %44 to i64
  %46 = getelementptr inbounds i8, ptr %41, i64 %45
  %47 = load ptr, ptr %4, align 8, !tbaa !43
  %48 = getelementptr inbounds nuw %struct.directory, ptr %47, i32 0, i32 4
  %49 = load i32, ptr %48, align 4, !tbaa !9
  %50 = load ptr, ptr %3, align 8, !tbaa !70
  %51 = call i32 @write_archive_entry(ptr noundef %32, ptr noundef %35, i32 noundef %38, ptr noundef %46, i32 noundef %49, ptr noundef %50)
  %52 = icmp ne i32 %51, 1
  br label %53

53:                                               ; preds = %30, %13
  %54 = phi i1 [ true, %13 ], [ %52, %30 ]
  %55 = zext i1 %54 to i32
  store i32 %55, ptr %5, align 4, !tbaa !9
  %56 = load ptr, ptr %4, align 8, !tbaa !43
  call void @free(ptr noundef %56) #11
  %57 = load i32, ptr %5, align 4, !tbaa !9
  %58 = icmp ne i32 %57, 0
  %59 = select i1 %58, i32 -1, i32 0
  store i32 %59, ptr %2, align 4
  store i32 1, ptr %6, align 4
  br label %60

60:                                               ; preds = %53, %12
  call void @llvm.lifetime.end.p0(i64 4, ptr %5) #11
  call void @llvm.lifetime.end.p0(i64 8, ptr %4) #11
  %61 = load i32, ptr %2, align 4
  ret i32 %61
}