; Function Attrs: nounwind uwtable
define internal fastcc range(i32 -1, 1) i32 @write_directory(ptr noundef captures(none) %0) unnamed_addr #0 {
  %2 = getelementptr inbounds nuw i8, ptr %0, i64 16
  %3 = load ptr, ptr %2, align 8, !tbaa !41
  %.not = icmp eq ptr %3, null
  br i1 %.not, label %27, label %4

4:                                                ; preds = %1
  %5 = load ptr, ptr %3, align 8, !tbaa !43
  store ptr %5, ptr %2, align 8, !tbaa !41
  %6 = getelementptr inbounds nuw i8, ptr %3, i64 56
  %7 = getelementptr inbounds nuw i8, ptr %3, i64 48
  %8 = load i32, ptr %7, align 8, !tbaa !4
  %9 = add nsw i32 %8, -1
  %10 = sext i32 %9 to i64
  %11 = getelementptr inbounds [0 x i8], ptr %6, i64 0, i64 %10
  store i8 0, ptr %11, align 1, !tbaa !29
  %12 = tail call fastcc i32 @write_directory(ptr noundef nonnull %0)
  %.not17 = icmp eq i32 %12, 0
  br i1 %.not17, label %13, label %25

13:                                               ; preds = %4
  %14 = getelementptr inbounds nuw i8, ptr %3, i64 8
  %15 = getelementptr inbounds nuw i8, ptr %3, i64 44
  %16 = load i32, ptr %15, align 4, !tbaa !4
  %17 = sext i32 %16 to i64
  %18 = getelementptr inbounds i8, ptr %6, i64 %17
  %19 = getelementptr inbounds nuw i8, ptr %3, i64 52
  %20 = load i32, ptr %19, align 4, !tbaa !4
  %.val = load ptr, ptr %0, align 8, !tbaa !35
  %21 = getelementptr i8, ptr %0, i64 8
  %.val18 = load ptr, ptr %21, align 8, !tbaa !39
  %22 = tail call fastcc i32 @write_archive_entry(ptr noundef nonnull %14, ptr noundef nonnull %6, i32 noundef %16, ptr noundef nonnull %18, i32 noundef %20, ptr %.val, ptr %.val18)
  %23 = icmp ne i32 %22, 1
  %24 = sext i1 %23 to i32
  br label %25

25:                                               ; preds = %13, %4
  %26 = phi i32 [ -1, %4 ], [ %24, %13 ]
  tail call void @free(ptr noundef nonnull %3) #19
  br label %27

27:                                               ; preds = %1, %25
  %.0 = phi i32 [ %26, %25 ], [ 0, %1 ]
  ret i32 %.0
}